target datalayout = "e-m:e-p270:32:32-p271:32:32-p272:64:64-i64:64-i128:128-f80:128-n8:16:32:64-S128"
target triple = "x86_64-pc-linux-gnu"

%struct.filehash_hash = type { i64, i32, i32, i32, ptr, ptr }
%struct.file_entry_t = type { i32, ptr, i8, i8, i32, i64, ptr, %struct.datapagemap, i8, i32, i64, ptr, i32 }
%struct.datapagemap = type { ptr, i32 }
%struct.RelFileLocator = type { i32, i32, i32 }

@filehash = internal global ptr null, align 8
@.str.3 = private unnamed_addr constant [55 x i8] c"unexpected page modification for non-regular file \22%s\22\00", align 1
@.str.17 = private unnamed_addr constant [6 x i8] c"%s.%u\00", align 1

; Function Attrs: inlinehint nounwind uwtable
define internal i32 @filehash_next(ptr noundef %0, i32 noundef %1, i32 noundef %2) #1 {
  %4 = alloca ptr, align 8
  %5 = alloca i32, align 4
  %6 = alloca i32, align 4
  store ptr %0, ptr %4, align 8
  store i32 %1, ptr %5, align 4
  store i32 %2, ptr %6, align 4
  %7 = load i32, ptr %5, align 4
  %8 = add i32 %7, 1
  %9 = load ptr, ptr %4, align 8
  %10 = getelementptr inbounds nuw %struct.filehash_hash, ptr %9, i32 0, i32 2
  %11 = load i32, ptr %10, align 4
  %12 = and i32 %8, %11
  store i32 %12, ptr %5, align 4
  %13 = load i32, ptr %5, align 4
  ret i32 %13
}

; Function Attrs: inlinehint nounwind uwtable
define internal i32 @filehash_initial_bucket(ptr noundef %0, i32 noundef %1) #1 {
  %3 = alloca ptr, align 8
  %4 = alloca i32, align 4
  store ptr %0, ptr %3, align 8
  store i32 %1, ptr %4, align 4
  %5 = load i32, ptr %4, align 4
  %6 = load ptr, ptr %3, align 8
  %7 = getelementptr inbounds nuw %struct.filehash_hash, ptr %6, i32 0, i32 2
  %8 = load i32, ptr %7, align 4
  %9 = and i32 %5, %8
  ret i32 %9
}

; Function Attrs: inlinehint nounwind uwtable
define internal ptr @filehash_lookup_hash_internal(ptr noundef %0, ptr noundef %1, i32 noundef %2) #1 {
  %4 = alloca ptr, align 8
  %5 = alloca ptr, align 8
  %6 = alloca ptr, align 8
  %7 = alloca i32, align 4
  %8 = alloca i32, align 4
  %9 = alloca i32, align 4
  %10 = alloca ptr, align 8
  %11 = alloca i32, align 4
  store ptr %0, ptr %5, align 8
  store ptr %1, ptr %6, align 8
  store i32 %2, ptr %7, align 4
  call void @llvm.lifetime.start.p0(i64 4, ptr %8) #11
  %12 = load ptr, ptr %5, align 8
  %13 = load i32, ptr %7, align 4
  %14 = call i32 @filehash_initial_bucket(ptr noundef %12, i32 noundef %13)
  store i32 %14, ptr %8, align 4
  call void @llvm.lifetime.start.p0(i64 4, ptr %9) #11
  %15 = load i32, ptr %8, align 4
  store i32 %15, ptr %9, align 4
  br label %16

16:                                               ; preds = %45, %3
  br label %17

17:                                               ; preds = %16
  call void @llvm.lifetime.start.p0(i64 8, ptr %10) #11
  %18 = load ptr, ptr %5, align 8
  %19 = getelementptr inbounds nuw %struct.filehash_hash, ptr %18, i32 0, i32 4
  %20 = load ptr, ptr %19, align 8
  %21 = load i32, ptr %9, align 4
  %22 = zext i32 %21 to i64
  %23 = getelementptr inbounds nuw %struct.file_entry_t, ptr %20, i64 %22
  store ptr %23, ptr %10, align 8
  %24 = load ptr, ptr %10, align 8
  %25 = getelementptr inbounds nuw %struct.file_entry_t, ptr %24, i32 0, i32 0
  %26 = load i32, ptr %25, align 8
  %27 = icmp eq i32 %26, 0
  br i1 %27, label %28, label %29

28:                                               ; preds = %17
  store ptr null, ptr %4, align 8
  store i32 1, ptr %11, align 4
  br label %43

29:                                               ; preds = %17
  %30 = load ptr, ptr %10, align 8
  %31 = getelementptr inbounds nuw %struct.file_entry_t, ptr %30, i32 0, i32 1
  %32 = load ptr, ptr %31, align 8
  %33 = load ptr, ptr %6, align 8
  %34 = call i32 @strcmp(ptr noundef %32, ptr noundef %33) #12
  %35 = icmp eq i32 %34, 0
  br i1 %35, label %36, label %38

36:                                               ; preds = %29
  %37 = load ptr, ptr %10, align 8
  store ptr %37, ptr %4, align 8
  store i32 1, ptr %11, align 4
  br label %43

38:                                               ; preds = %29
  %39 = load ptr, ptr %5, align 8
  %40 = load i32, ptr %9, align 4
  %41 = load i32, ptr %8, align 4
  %42 = call i32 @filehash_next(ptr noundef %39, i32 noundef %40, i32 noundef %41)
  store i32 %42, ptr %9, align 4
  store i32 0, ptr %11, align 4
  br label %43

43:                                               ; preds = %38, %36, %28
  call void @llvm.lifetime.end.p0(i64 8, ptr %10) #11
  %44 = load i32, ptr %11, align 4
  switch i32 %44, label %46 [
    i32 0, label %45
  ]

45:                                               ; preds = %43
  br label %16

46:                                               ; preds = %43
  call void @llvm.lifetime.end.p0(i64 4, ptr %9) #11
  call void @llvm.lifetime.end.p0(i64 4, ptr %8) #11
  %47 = load ptr, ptr %4, align 8
  ret ptr %47
}

; Function Attrs: inlinehint nounwind uwtable
define internal ptr @filehash_lookup(ptr noundef %0, ptr noundef %1) #1 {
  %3 = alloca ptr, align 8
  %4 = alloca ptr, align 8
  %5 = alloca i32, align 4
  store ptr %0, ptr %3, align 8
  store ptr %1, ptr %4, align 8
  call void @llvm.lifetime.start.p0(i64 4, ptr %5) #11
  %6 = load ptr, ptr %4, align 8
  %7 = call i32 @hash_string(ptr noundef %6)
  store i32 %7, ptr %5, align 4
  %8 = load ptr, ptr %3, align 8
  %9 = load ptr, ptr %4, align 8
  %10 = load i32, ptr %5, align 4
  %11 = call ptr @filehash_lookup_hash_internal(ptr noundef %8, ptr noundef %9, i32 noundef %10)
  call void @llvm.lifetime.end.p0(i64 4, ptr %5) #11
  ret ptr %11
}

; Function Attrs: nounwind uwtable
define internal ptr @lookup_filehash_entry(ptr noundef %0) #0 {
  %2 = alloca ptr, align 8
  store ptr %0, ptr %2, align 8
  %3 = load ptr, ptr @filehash, align 8
  %4 = load ptr, ptr %2, align 8
  %5 = call ptr @filehash_lookup(ptr noundef %3, ptr noundef %4)
  ret ptr %5
}

; Function Attrs: nounwind uwtable
define internal ptr @datasegpath(i64 %0, i32 %1, i32 noundef %2, i32 noundef %3) #0 {
  %5 = alloca ptr, align 8
  %6 = alloca %struct.RelFileLocator, align 4
  %7 = alloca { i64, i32 }, align 4
  %8 = alloca i32, align 4
  %9 = alloca i32, align 4
  %10 = alloca ptr, align 8
  %11 = alloca ptr, align 8
  %12 = alloca i32, align 4
  %13 = getelementptr inbounds nuw { i64, i32 }, ptr %7, i32 0, i32 0
  store i64 %0, ptr %13, align 4
  %14 = getelementptr inbounds nuw { i64, i32 }, ptr %7, i32 0, i32 1
  store i32 %1, ptr %14, align 4
  call void @llvm.memcpy.p0.p0.i64(ptr align 4 %6, ptr align 4 %7, i64 12, i1 false)
  store i32 %2, ptr %8, align 4
  store i32 %3, ptr %9, align 4
  call void @llvm.lifetime.start.p0(i64 8, ptr %10) #11
  call void @llvm.lifetime.start.p0(i64 8, ptr %11) #11
  %15 = getelementptr inbounds nuw %struct.RelFileLocator, ptr %6, i32 0, i32 1
  %16 = load i32, ptr %15, align 4
  %17 = getelementptr inbounds nuw %struct.RelFileLocator, ptr %6, i32 0, i32 0
  %18 = load i32, ptr %17, align 4
  %19 = getelementptr inbounds nuw %struct.RelFileLocator, ptr %6, i32 0, i32 2
  %20 = load i32, ptr %19, align 4
  %21 = load i32, ptr %8, align 4
  %22 = call ptr @GetRelationPath(i32 noundef %16, i32 noundef %18, i32 noundef %20, i32 noundef -1, i32 noundef %21)
  store ptr %22, ptr %10, align 8
  %23 = load i32, ptr %9, align 4
  %24 = icmp ugt i32 %23, 0
  br i1 %24, label %25, label %31

25:                                               ; preds = %4
  %26 = load ptr, ptr %10, align 8
  %27 = load i32, ptr %9, align 4
  %28 = call ptr (ptr, ...) @psprintf(ptr noundef @.str.17, ptr noundef %26, i32 noundef %27)
  store ptr %28, ptr %11, align 8
  %29 = load ptr, ptr %10, align 8
  call void @pfree(ptr noundef %29)
  %30 = load ptr, ptr %11, align 8
  store ptr %30, ptr %5, align 8
  store i32 1, ptr %12, align 4
  br label %33

31:                                               ; preds = %4
  %32 = load ptr, ptr %10, align 8
  store ptr %32, ptr %5, align 8
  store i32 1, ptr %12, align 4
  br label %33

33:                                               ; preds = %31, %25
  call void @llvm.lifetime.end.p0(i64 8, ptr %11) #11
  call void @llvm.lifetime.end.p0(i64 8, ptr %10) #11
  %34 = load ptr, ptr %5, align 8
  ret ptr %34
}

; Function Attrs: nounwind uwtable
define dso_local void @process_target_wal_block_change(i32 noundef %0, i64 %1, i32 %2, i32 noundef %3) #0 {
  %5 = alloca %struct.RelFileLocator, align 4
  %6 = alloca { i64, i32 }, align 4
  %7 = alloca i32, align 4
  %8 = alloca i32, align 4
  %9 = alloca ptr, align 8
  %10 = alloca ptr, align 8
  %11 = alloca i32, align 4
  %12 = alloca i32, align 4
  %13 = alloca { i64, i32 }, align 4
  %14 = alloca i64, align 8
  %15 = getelementptr inbounds nuw { i64, i32 }, ptr %6, i32 0, i32 0
  store i64 %1, ptr %15, align 4
  %16 = getelementptr inbounds nuw { i64, i32 }, ptr %6, i32 0, i32 1
  store i32 %2, ptr %16, align 4
  call void @llvm.memcpy.p0.p0.i64(ptr align 4 %5, ptr align 4 %6, i64 12, i1 false)
  store i32 %0, ptr %7, align 4
  store i32 %3, ptr %8, align 4
  call void @llvm.lifetime.start.p0(i64 8, ptr %9) #11
  call void @llvm.lifetime.start.p0(i64 8, ptr %10) #11
  call void @llvm.lifetime.start.p0(i64 4, ptr %11) #11
  call void @llvm.lifetime.start.p0(i64 4, ptr %12) #11
  %17 = load i32, ptr %8, align 4
  %18 = udiv i32 %17, 131072
  store i32 %18, ptr %12, align 4
  %19 = load i32, ptr %8, align 4
  %20 = urem i32 %19, 131072
  store i32 %20, ptr %11, align 4
  %21 = load i32, ptr %7, align 4
  %22 = load i32, ptr %12, align 4
  call void @llvm.memcpy.p0.p0.i64(ptr align 4 %13, ptr align 4 %5, i64 12, i1 false)
  %23 = getelementptr inbounds nuw { i64, i32 }, ptr %13, i32 0, i32 0
  %24 = load i64, ptr %23, align 4
  %25 = getelementptr inbounds nuw { i64, i32 }, ptr %13, i32 0, i32 1
  %26 = load i32, ptr %25, align 4
  %27 = call ptr @datasegpath(i64 %24, i32 %26, i32 noundef %21, i32 noundef %22)
  store ptr %27, ptr %9, align 8
  %28 = load ptr, ptr %9, align 8
  %29 = call ptr @lookup_filehash_entry(ptr noundef %28)
  store ptr %29, ptr %10, align 8
  %30 = load ptr, ptr %9, align 8
  call void @pfree(ptr noundef %30)
  %31 = load ptr, ptr %10, align 8
  %32 = icmp ne ptr %31, null
  br i1 %32, label %33, label %78

33:                                               ; preds = %4
  %34 = load ptr, ptr %10, align 8
  %35 = getelementptr inbounds nuw %struct.file_entry_t, ptr %34, i32 0, i32 3
  %36 = load i8, ptr %35, align 1, !range !4, !noundef !5
  %37 = trunc i8 %36 to i1
  br i1 %37, label %38, label %77

38:                                               ; preds = %33
  %39 = load ptr, ptr %10, align 8
  %40 = getelementptr inbounds nuw %struct.file_entry_t, ptr %39, i32 0, i32 4
  %41 = load i32, ptr %40, align 4
  %42 = icmp ne i32 %41, 1
  br i1 %42, label %43, label %50

43:                                               ; preds = %38
  br label %44

44:                                               ; preds = %43
  %45 = load ptr, ptr %10, align 8
  %46 = getelementptr inbounds nuw %struct.file_entry_t, ptr %45, i32 0, i32 1
  %47 = load ptr, ptr %46, align 8
  call void (i32, i32, ptr, ...) @pg_log_generic(i32 noundef 4, i32 noundef 0, ptr noundef @.str.3, ptr noundef %47)
  call void @exit(i32 noundef 1) #13
  unreachable

48:                                               ; No predecessors!
  br label %49

49:                                               ; preds = %48
  br label %50

50:                                               ; preds = %49, %38
  %51 = load ptr, ptr %10, align 8
  %52 = getelementptr inbounds nuw %struct.file_entry_t, ptr %51, i32 0, i32 8
  %53 = load i8, ptr %52, align 8, !range !4, !noundef !5
  %54 = trunc i8 %53 to i1
  br i1 %54, label %55, label %76

55:                                               ; preds = %50
  call void @llvm.lifetime.start.p0(i64 8, ptr %14) #11
  %56 = load i32, ptr %11, align 4
  %57 = add i32 %56, 1
  %58 = mul i32 %57, 8192
  %59 = zext i32 %58 to i64
  store i64 %59, ptr %14, align 8
  %60 = load i64, ptr %14, align 8
  %61 = load ptr, ptr %10, align 8
  %62 = getelementptr inbounds nuw %struct.file_entry_t, ptr %61, i32 0, i32 10
  %63 = load i64, ptr %62, align 8
  %64 = icmp ule i64 %60, %63
  br i1 %64, label %65, label %75

65:                                               ; preds = %55
  %66 = load i64, ptr %14, align 8
  %67 = load ptr, ptr %10, align 8
  %68 = getelementptr inbounds nuw %struct.file_entry_t, ptr %67, i32 0, i32 5
  %69 = load i64, ptr %68, align 8
  %70 = icmp ule i64 %66, %69
  br i1 %70, label %71, label %75

71:                                               ; preds = %65
  %72 = load ptr, ptr %10, align 8
  %73 = getelementptr inbounds nuw %struct.file_entry_t, ptr %72, i32 0, i32 7
  %74 = load i32, ptr %11, align 4
  call void @datapagemap_add(ptr noundef %73, i32 noundef %74)
  br label %75

75:                                               ; preds = %71, %65, %55
  call void @llvm.lifetime.end.p0(i64 8, ptr %14) #11
  br label %76

76:                                               ; preds = %75, %50
  br label %77

77:                                               ; preds = %76, %33
  br label %78

78:                                               ; preds = %77, %4
  call void @llvm.lifetime.end.p0(i64 4, ptr %12) #11
  call void @llvm.lifetime.end.p0(i64 4, ptr %11) #11
  call void @llvm.lifetime.end.p0(i64 8, ptr %10) #11
  call void @llvm.lifetime.end.p0(i64 8, ptr %9) #11
  ret void
}