; Function Attrs: nounwind uwtable
define dso_local void @process_target_wal_block_change(i32 noundef %0, i64 %1, i32 %2, i32 noundef %3) local_unnamed_addr #0 {
  %5 = and i32 %3, 131071
  %.sroa.06.0.extract.trunc.i = trunc i64 %1 to i32
  %.sroa.27.0.extract.shift.i = lshr i64 %1, 32
  %.sroa.27.0.extract.trunc.i = trunc nuw i64 %.sroa.27.0.extract.shift.i to i32
  %6 = tail call ptr @GetRelationPath(i32 noundef %.sroa.27.0.extract.trunc.i, i32 noundef %.sroa.06.0.extract.trunc.i, i32 noundef %2, i32 noundef -1, i32 noundef %0) #13
  %.not.i = icmp ult i32 %3, 131072
  br i1 %.not.i, label %datasegpath.exit, label %7

7:                                                ; preds = %4
  %8 = lshr i32 %3, 17
  %9 = tail call ptr (ptr, ...) @psprintf(ptr noundef nonnull @.str.17, ptr noundef %6, i32 noundef %8) #13
  tail call void @pfree(ptr noundef %6) #13
  br label %datasegpath.exit

datasegpath.exit:                                 ; preds = %4, %7
  %.0.i = phi ptr [ %9, %7 ], [ %6, %4 ]
  %10 = load ptr, ptr @filehash, align 8
  %11 = tail call fastcc i32 @hash_string(ptr noundef %.0.i)
  %12 = getelementptr i8, ptr %10, i64 12
  %.val.i.i.i = load i32, ptr %12, align 4
  %13 = getelementptr inbounds nuw i8, ptr %10, i64 24
  %14 = load ptr, ptr %13, align 8
  %.01421.i.i.i = and i32 %.val.i.i.i, %11
  %15 = zext i32 %.01421.i.i.i to i64
  %16 = getelementptr inbounds nuw %struct.file_entry_t, ptr %14, i64 %15
  %17 = load i32, ptr %16, align 8
  %18 = icmp eq i32 %17, 0
  br i1 %18, label %lookup_filehash_entry.exit.thread, label %.lr.ph.i.i.i

19:                                               ; preds = %.lr.ph.i.i.i
  %20 = add i32 %.01422.i.i.i, 1
  %.014.i.i.i = and i32 %20, %.val.i.i.i
  %21 = zext i32 %.014.i.i.i to i64
  %22 = getelementptr inbounds nuw %struct.file_entry_t, ptr %14, i64 %21
  %23 = load i32, ptr %22, align 8
  %24 = icmp eq i32 %23, 0
  br i1 %24, label %lookup_filehash_entry.exit.thread, label %.lr.ph.i.i.i

.lr.ph.i.i.i:                                     ; preds = %datasegpath.exit, %19
  %25 = phi ptr [ %22, %19 ], [ %16, %datasegpath.exit ]
  %.01422.i.i.i = phi i32 [ %.014.i.i.i, %19 ], [ %.01421.i.i.i, %datasegpath.exit ]
  %26 = getelementptr inbounds nuw i8, ptr %25, i64 8
  %27 = load ptr, ptr %26, align 8
  %28 = tail call i32 @strcmp(ptr noundef nonnull dereferenceable(1) %27, ptr noundef nonnull readonly dereferenceable(1) %.0.i) #15
  %29 = icmp eq i32 %28, 0
  br i1 %29, label %30, label %19

lookup_filehash_entry.exit.thread:                ; preds = %19, %datasegpath.exit
  tail call void @pfree(ptr noundef %.0.i) #13
  br label %55

30:                                               ; preds = %.lr.ph.i.i.i
  tail call void @pfree(ptr noundef nonnull %.0.i) #13
  %31 = getelementptr inbounds nuw i8, ptr %25, i64 17
  %32 = load i8, ptr %31, align 1, !range !8, !noundef !9
  %33 = trunc nuw i8 %32 to i1
  br i1 %33, label %34, label %55

34:                                               ; preds = %30
  %35 = getelementptr inbounds nuw i8, ptr %25, i64 20
  %36 = load i32, ptr %35, align 4
  %.not22 = icmp eq i32 %36, 1
  br i1 %.not22, label %40, label %37

37:                                               ; preds = %34
  %38 = getelementptr inbounds nuw i8, ptr %25, i64 8
  %39 = load ptr, ptr %38, align 8
  tail call void (i32, i32, ptr, ...) @pg_log_generic(i32 noundef 4, i32 noundef 0, ptr noundef nonnull @.str.3, ptr noundef %39) #13
  tail call void @exit(i32 noundef 1) #14
  unreachable

40:                                               ; preds = %34
  %41 = getelementptr inbounds nuw i8, ptr %25, i64 56
  %42 = load i8, ptr %41, align 8, !range !8, !noundef !9
  %43 = trunc nuw i8 %42 to i1
  br i1 %43, label %44, label %55

44:                                               ; preds = %40
  %45 = shl nuw nsw i32 %5, 13
  %46 = add nuw nsw i32 %45, 8192
  %47 = zext nneg i32 %46 to i64
  %48 = getelementptr inbounds nuw i8, ptr %25, i64 64
  %49 = load i64, ptr %48, align 8
  %.not23 = icmp ult i64 %49, %47
  br i1 %.not23, label %55, label %50

50:                                               ; preds = %44
  %51 = getelementptr inbounds nuw i8, ptr %25, i64 24
  %52 = load i64, ptr %51, align 8
  %.not24 = icmp ult i64 %52, %47
  br i1 %.not24, label %55, label %53

53:                                               ; preds = %50
  %54 = getelementptr inbounds nuw i8, ptr %25, i64 40
  tail call void @datapagemap_add(ptr noundef nonnull %54, i32 noundef %5) #13
  br label %55

55:                                               ; preds = %lookup_filehash_entry.exit.thread, %44, %50, %53, %30, %40
  ret void
}